target datalayout = "e-m:e-p270:32:32-p271:32:32-p272:64:64-i64:64-i128:128-f80:128-n8:16:32:64-S128"
target triple = "x86_64-pc-linux-gnu"

%struct.acct_gather_energy = type { i32, i64, i64, i32, i64, i64, i64 }

@plugin_type = dso_local constant [24 x i8] c"acct_gather_energy/rapl\00", align 16
@local_energy = internal global ptr null, align 8
@.str.1 = private unnamed_addr constant [56 x i8] c"%s: %s: trying to get data %d, but no local_energy yet.\00", align 1
@__func__.acct_gather_energy_p_get_data = private unnamed_addr constant [30 x i8] c"acct_gather_energy_p_get_data\00", align 1
@.str.2 = private unnamed_addr constant [47 x i8] c"acct_gather_energy_p_get_data: unknown enum %d\00", align 1

; Function Attrs: nounwind uwtable
define dso_local i32 @acct_gather_energy_p_get_data(i32 noundef %0, ptr noundef %1) #0 {
  %3 = alloca i32, align 4
  %4 = alloca ptr, align 8
  %5 = alloca i32, align 4
  %6 = alloca ptr, align 8
  %7 = alloca ptr, align 8
  %8 = alloca ptr, align 8
  store i32 %0, ptr %3, align 4
  store ptr %1, ptr %4, align 8
  call void @llvm.lifetime.start.p0(i64 4, ptr %5) #8
  store i32 0, ptr %5, align 4
  call void @llvm.lifetime.start.p0(i64 8, ptr %6) #8
  %9 = load ptr, ptr %4, align 8
  store ptr %9, ptr %6, align 8
  call void @llvm.lifetime.start.p0(i64 8, ptr %7) #8
  %10 = load ptr, ptr %4, align 8
  store ptr %10, ptr %7, align 8
  call void @llvm.lifetime.start.p0(i64 8, ptr %8) #8
  %11 = load ptr, ptr %4, align 8
  store ptr %11, ptr %8, align 8
  %12 = load ptr, ptr @local_energy, align 8
  %13 = icmp ne ptr %12, null
  br i1 %13, label %26, label %14

14:                                               ; preds = %2
  br label %15

15:                                               ; preds = %14
  br label %16

16:                                               ; preds = %15
  %17 = call i32 @slurm_get_log_level()
  %18 = icmp sge i32 %17, 5
  br i1 %18, label %19, label %21

19:                                               ; preds = %16
  %20 = load i32, ptr %3, align 4
  call void (i32, ptr, ...) @slurm_log_var(i32 noundef 5, ptr noundef @.str.1, ptr noundef @plugin_type, ptr noundef @__func__.acct_gather_energy_p_get_data, i32 noundef %20)
  br label %21

21:                                               ; preds = %19, %16
  br label %22

22:                                               ; preds = %21
  br label %23

23:                                               ; preds = %22
  br label %24

24:                                               ; preds = %23
  br label %25

25:                                               ; preds = %24
  call void @acct_gather_energy_p_conf_set(i32 noundef 0, ptr noundef null)
  br label %26

26:                                               ; preds = %25, %2
  %27 = load i32, ptr %3, align 4
  switch i32 %27, label %49 [
    i32 0, label %28
    i32 7, label %28
    i32 1, label %39
    i32 6, label %39
    i32 4, label %42
    i32 5, label %47
  ]

28:                                               ; preds = %26, %26
  %29 = load ptr, ptr @local_energy, align 8
  %30 = getelementptr inbounds nuw %struct.acct_gather_energy, ptr %29, i32 0, i32 3
  %31 = load i32, ptr %30, align 8
  %32 = icmp eq i32 %31, -2
  br i1 %32, label %33, label %36

33:                                               ; preds = %28
  %34 = load ptr, ptr %6, align 8
  %35 = getelementptr inbounds nuw %struct.acct_gather_energy, ptr %34, i32 0, i32 2
  store i64 -2, ptr %35, align 8
  br label %38

36:                                               ; preds = %28
  %37 = load ptr, ptr %6, align 8
  call void @_get_joules_task(ptr noundef %37)
  br label %38

38:                                               ; preds = %36, %33
  br label %52

39:                                               ; preds = %26, %26
  %40 = load ptr, ptr %6, align 8
  %41 = load ptr, ptr @local_energy, align 8
  call void @llvm.memcpy.p0.p0.i64(ptr align 8 %40, ptr align 8 %41, i64 56, i1 false)
  br label %52

42:                                               ; preds = %26
  %43 = load ptr, ptr @local_energy, align 8
  %44 = getelementptr inbounds nuw %struct.acct_gather_energy, ptr %43, i32 0, i32 5
  %45 = load i64, ptr %44, align 8
  %46 = load ptr, ptr %7, align 8
  store i64 %45, ptr %46, align 8
  br label %52

47:                                               ; preds = %26
  %48 = load ptr, ptr %8, align 8
  store i16 1, ptr %48, align 2
  br label %52

49:                                               ; preds = %26
  %50 = load i32, ptr %3, align 4
  %51 = call i32 (ptr, ...) @slurm_error(ptr noundef @.str.2, i32 noundef %50)
  store i32 -1, ptr %5, align 4
  br label %52

52:                                               ; preds = %49, %47, %42, %39, %38
  %53 = load i32, ptr %5, align 4
  call void @llvm.lifetime.end.p0(i64 8, ptr %8) #8
  call void @llvm.lifetime.end.p0(i64 8, ptr %7) #8
  call void @llvm.lifetime.end.p0(i64 8, ptr %6) #8
  call void @llvm.lifetime.end.p0(i64 4, ptr %5) #8
  ret i32 %53
}