; Function Attrs: nounwind uwtable
define dso_local range(i32 -1, 1) i32 @acct_gather_energy_p_get_data(i32 noundef %0, ptr noundef captures(none) %1) local_unnamed_addr #0 {
  %3 = load ptr, ptr @local_energy, align 8
  %.not = icmp eq ptr %3, null
  br i1 %.not, label %4, label %9

4:                                                ; preds = %2
  %5 = tail call i32 @slurm_get_log_level() #11
  %6 = icmp sgt i32 %5, 4
  br i1 %6, label %7, label %8

7:                                                ; preds = %4
  tail call void (i32, ptr, ...) @slurm_log_var(i32 noundef 5, ptr noundef nonnull @.str.1, ptr noundef nonnull @plugin_type, ptr noundef nonnull @__func__.acct_gather_energy_p_get_data, i32 noundef %0) #11
  br label %8

8:                                                ; preds = %7, %4
  tail call void @acct_gather_energy_p_conf_set(i32 poison, ptr poison)
  br label %9

9:                                                ; preds = %8, %2
  switch i32 %0, label %25 [
    i32 0, label %10
    i32 7, label %10
    i32 1, label %18
    i32 6, label %18
    i32 4, label %20
    i32 5, label %24
  ]

10:                                               ; preds = %9, %9
  %11 = load ptr, ptr @local_energy, align 8
  %12 = getelementptr inbounds nuw i8, ptr %11, i64 24
  %13 = load i32, ptr %12, align 8
  %14 = icmp eq i32 %13, -2
  br i1 %14, label %15, label %17

15:                                               ; preds = %10
  %16 = getelementptr inbounds nuw i8, ptr %1, i64 16
  store i64 -2, ptr %16, align 8
  br label %27

17:                                               ; preds = %10
  tail call fastcc void @_get_joules_task(ptr noundef %1)
  br label %27

18:                                               ; preds = %9, %9
  %19 = load ptr, ptr @local_energy, align 8
  tail call void @llvm.memcpy.p0.p0.i64(ptr noundef nonnull align 8 dereferenceable(56) %1, ptr noundef nonnull align 8 dereferenceable(56) %19, i64 56, i1 false)
  br label %27

20:                                               ; preds = %9
  %21 = load ptr, ptr @local_energy, align 8
  %22 = getelementptr inbounds nuw i8, ptr %21, i64 40
  %23 = load i64, ptr %22, align 8
  store i64 %23, ptr %1, align 8
  br label %27

24:                                               ; preds = %9
  store i16 1, ptr %1, align 2
  br label %27

25:                                               ; preds = %9
  %26 = tail call i32 (ptr, ...) @slurm_error(ptr noundef nonnull @.str.2, i32 noundef %0) #11
  br label %27

27:                                               ; preds = %15, %17, %25, %24, %20, %18
  %.0 = phi i32 [ -1, %25 ], [ 0, %24 ], [ 0, %20 ], [ 0, %18 ], [ 0, %15 ], [ 0, %17 ]
  ret i32 %.0
}